Certificate:
    Data:
        Version: 1 (0x0)
        Serial Number: 1048578 (0x100002)
    Signature Algorithm: md5WithRSAEncryption
        Issuer: O=Le Sanglier du Libre, OU=Sd-Libre/emailAddress=info@sd-libre.fr, L=Dom\xC3\xA8ne, ST=FRANCE, C=FR, CN=sd-libre
        Validity
            Not Before: Mar 21 16:15:28 2016 GMT
            Not After : Mar 19 16:15:28 2026 GMT
        Subject: C=FR, ST=FRANCE, O=Le Sanglier du Libre, OU=Sd-Libre, CN=sd-libre
        Subject Public Key Info:
            Public Key Algorithm: rsaEncryption
                Public-Key: (1024 bit)
                Modulus:
                    00:b0:87:6d:5a:b5:50:7d:ab:16:b1:1d:b1:83:37:
                    85:68:97:97:48:a2:16:0b:b2:9f:c9:c1:2b:ac:61:
                    95:28:56:69:3c:d2:b5:62:ee:b5:35:98:57:57:90:
                    3c:0a:89:9c:f6:90:35:a6:91:ce:76:bc:ef:a7:7c:
                    61:8c:b7:01:c2:22:ad:b1:35:d3:f3:a4:1a:df:ba:
                    06:f0:65:a3:9b:f4:88:8d:db:22:87:c9:37:e5:13:
                    87:d3:3d:d7:5b:68:f4:69:33:fd:ff:27:87:4a:c6:
                    be:bd:86:cf:35:07:fd:04:af:d0:9d:96:8b:37:27:
                    a6:8b:7e:11:39:d4:bd:b7:c5
                Exponent: 65537 (0x10001)
    Signature Algorithm: md5WithRSAEncryption
         41:2e:1d:3f:81:ee:45:d1:bf:75:25:c5:f4:ca:e6:c2:4e:94:
         c5:0f:b8:95:4d:09:a8:68:8c:af:8f:b3:93:80:09:d6:2c:6e:
         94:1e:c7:76:f5:51:f5:5b:81:7e:4d:ba:9f:85:49:e0:a6:09:
         5e:b0:fc:4a:cb:fa:85:17:1e:b9:91:73:20:aa:06:0e:bd:01:
         d8:c4:0c:ed:9c:44:38:04:21:a3:8c:04:34:d4:f1:9c:83:3f:
         83:fe:e1:ff:98:10:dc:02:64:b3:24:15:d7:20:13:53:fc:48:
         a1:96:cd:dd:e2:6f:bc:d1:47:5a:22:63:27:6d:f9:db:13:ec:
         87:c4
-----BEGIN CERTIFICATE-----
MIICazCCAdQCAxAAAjANBgkqhkiG9w0BAQQFADCBljEdMBsGA1UEChMUTGUgU2Fu
Z2xpZXIgZHUgTGlicmUxETAPBgNVBAsTCFNkLUxpYnJlMR8wHQYJKoZIhvcNAQkB
FhBpbmZvQHNkLWxpYnJlLmZyMRAwDgYDVQQHFAdEb23DqG5lMQ8wDQYDVQQIEwZG
UkFOQ0UxCzAJBgNVBAYTAkZSMREwDwYDVQQDEwhzZC1saWJyZTAeFw0xNjAzMjEx
NjE1MjhaFw0yNjAzMTkxNjE1MjhaMGMxCzAJBgNVBAYTAkZSMQ8wDQYDVQQIEwZG
UkFOQ0UxHTAbBgNVBAoTFExlIFNhbmdsaWVyIGR1IExpYnJlMREwDwYDVQQLEwhT
ZC1MaWJyZTERMA8GA1UEAxMIc2QtbGlicmUwgZ8wDQYJKoZIhvcNAQEBBQADgY0A
MIGJAoGBALCHbVq1UH2rFrEdsYM3hWiXl0iiFguyn8nBK6xhlShWaTzStWLutTWY
V1eQPAqJnPaQNaaRzna876d8YYy3AcIirbE10/OkGt+6BvBlo5v0iI3bIofJN+UT
h9M911to9Gkz/f8nh0rGvr2GzzUH/QSv0J2Wizcnpot+ETnUvbfFAgMBAAEwDQYJ
KoZIhvcNAQEEBQADgYEAQS4dP4HuRdG/dSXF9Mrmwk6UxQ+4lU0JqGiMr4+zk4AJ
1ixulB7HdvVR9VuBfk26n4VJ4KYJXrD8Ssv6hRceuZFzIKoGDr0B2MQM7ZxEOAQh
o4wENNTxnIM/g/7h/5gQ3AJksyQV1yATU/xIoZbN3eJvvNFHWiJjJ2352xPsh8Q=
-----END CERTIFICATE-----
